; Function Attrs: mustprogress nofree nounwind memory(readwrite, inaccessiblemem: read) uwtable
define hidden noundef ptr @_ZNK2cv8tinyxml210XMLElement9AttributeEPKcS3_(ptr noundef nonnull readonly align 8 captures(none) dereferenceable(104) %0, ptr noundef readonly %1, ptr noundef readonly %2) local_unnamed_addr #9 align 2 {
  %4 = getelementptr inbounds nuw i8, ptr %0, i64 96
  %.014.i = load ptr, ptr %4, align 8, !tbaa !127
  %.not15.i = icmp eq ptr %.014.i, null
  br i1 %.not15.i, label %_ZNK2cv8tinyxml210XMLElement13FindAttributeEPKc.exit, label %.lr.ph.i

.lr.ph.i:                                         ; preds = %3, %_ZN2cv8tinyxml27XMLUtil11StringEqualEPKcS3_i.exit.i
  %.016.i = phi ptr [ %.0.i, %_ZN2cv8tinyxml27XMLUtil11StringEqualEPKcS3_i.exit.i ], [ %.014.i, %3 ]
  %5 = getelementptr inbounds nuw i8, ptr %.016.i, i64 8
  %6 = tail call noundef ptr @_ZN2cv8tinyxml27StrPair6GetStrEv(ptr noundef nonnull align 8 dereferenceable(24) %5)
  %7 = icmp eq ptr %6, %1
  br i1 %7, label %23, label %.preheader.i.i

.preheader.i.i:                                   ; preds = %.lr.ph.i
  %8 = load i8, ptr %6, align 1, !tbaa !12
  %.not26.i.i = icmp eq i8 %8, 0
  br i1 %.not26.i.i, label %.critedge.i.thread.i, label %.lr.ph.i.i

.lr.ph.i.i:                                       ; preds = %.preheader.i.i, %13
  %9 = phi i8 [ %17, %13 ], [ %8, %.preheader.i.i ]
  %.029.i.i = phi i32 [ %16, %13 ], [ 0, %.preheader.i.i ]
  %.01628.i.i = phi ptr [ %15, %13 ], [ %1, %.preheader.i.i ]
  %.01727.i.i = phi ptr [ %14, %13 ], [ %6, %.preheader.i.i ]
  %10 = load i8, ptr %.01628.i.i, align 1, !tbaa !12
  %11 = icmp eq i8 %9, %10
  %12 = icmp ne i32 %.029.i.i, 2147483647
  %or.cond23.i.i = select i1 %11, i1 %12, i1 false
  br i1 %or.cond23.i.i, label %13, label %.critedge.thread.i.i

13:                                               ; preds = %.lr.ph.i.i
  %14 = getelementptr inbounds nuw i8, ptr %.01727.i.i, i64 1
  %15 = getelementptr inbounds nuw i8, ptr %.01628.i.i, i64 1
  %16 = add nuw nsw i32 %.029.i.i, 1
  %17 = load i8, ptr %14, align 1, !tbaa !12
  %.not.i.i = icmp eq i8 %17, 0
  br i1 %.not.i.i, label %.critedge.i.i, label %.lr.ph.i.i, !llvm.loop !32

.critedge.i.i:                                    ; preds = %13
  %18 = icmp eq i32 %16, 2147483647
  br i1 %18, label %23, label %.critedge.i.thread.i

.critedge.thread.i.i:                             ; preds = %.lr.ph.i.i
  %19 = icmp eq i32 %.029.i.i, 2147483647
  br i1 %19, label %23, label %_ZN2cv8tinyxml27XMLUtil11StringEqualEPKcS3_i.exit.i

.critedge.i.thread.i:                             ; preds = %.critedge.i.i, %.preheader.i.i
  %.016.lcssa.i10.i = phi ptr [ %15, %.critedge.i.i ], [ %1, %.preheader.i.i ]
  %20 = load i8, ptr %.016.lcssa.i10.i, align 1, !tbaa !12
  %21 = icmp eq i8 %20, 0
  br i1 %21, label %23, label %_ZN2cv8tinyxml27XMLUtil11StringEqualEPKcS3_i.exit.i

_ZN2cv8tinyxml27XMLUtil11StringEqualEPKcS3_i.exit.i: ; preds = %.critedge.i.thread.i, %.critedge.thread.i.i
  %22 = getelementptr inbounds nuw i8, ptr %.016.i, i64 56
  %.0.i = load ptr, ptr %22, align 8, !tbaa !127
  %.not.i = icmp eq ptr %.0.i, null
  br i1 %.not.i, label %_ZNK2cv8tinyxml210XMLElement13FindAttributeEPKc.exit, label %.lr.ph.i, !llvm.loop !129

23:                                               ; preds = %.critedge.thread.i.i, %.critedge.i.i, %.critedge.i.thread.i, %.lr.ph.i
  %.not10 = icmp eq ptr %2, null
  br i1 %.not10, label %_ZN2cv8tinyxml27XMLUtil11StringEqualEPKcS3_i.exit.thread, label %24

24:                                               ; preds = %23
  %25 = getelementptr inbounds nuw i8, ptr %.016.i, i64 32
  %26 = tail call noundef ptr @_ZN2cv8tinyxml27StrPair6GetStrEv(ptr noundef nonnull align 8 dereferenceable(24) %25)
  %27 = icmp eq ptr %26, %2
  br i1 %27, label %_ZN2cv8tinyxml27XMLUtil11StringEqualEPKcS3_i.exit.thread, label %.preheader.i

.preheader.i:                                     ; preds = %24
  %28 = load i8, ptr %26, align 1, !tbaa !12
  %.not26.i = icmp eq i8 %28, 0
  br i1 %.not26.i, label %.critedge.i.thread, label %.lr.ph.i11

.lr.ph.i11:                                       ; preds = %.preheader.i, %33
  %29 = phi i8 [ %37, %33 ], [ %28, %.preheader.i ]
  %.029.i = phi i32 [ %36, %33 ], [ 0, %.preheader.i ]
  %.01628.i = phi ptr [ %35, %33 ], [ %2, %.preheader.i ]
  %.01727.i = phi ptr [ %34, %33 ], [ %26, %.preheader.i ]
  %30 = load i8, ptr %.01628.i, align 1, !tbaa !12
  %31 = icmp eq i8 %29, %30
  %32 = icmp ne i32 %.029.i, 2147483647
  %or.cond23.i = select i1 %31, i1 %32, i1 false
  br i1 %or.cond23.i, label %33, label %.critedge.thread.i

33:                                               ; preds = %.lr.ph.i11
  %34 = getelementptr inbounds nuw i8, ptr %.01727.i, i64 1
  %35 = getelementptr inbounds nuw i8, ptr %.01628.i, i64 1
  %36 = add nuw nsw i32 %.029.i, 1
  %37 = load i8, ptr %34, align 1, !tbaa !12
  %.not.i12 = icmp eq i8 %37, 0
  br i1 %.not.i12, label %.critedge.i, label %.lr.ph.i11, !llvm.loop !32

.critedge.i:                                      ; preds = %33
  %38 = icmp eq i32 %36, 2147483647
  br i1 %38, label %_ZN2cv8tinyxml27XMLUtil11StringEqualEPKcS3_i.exit.thread, label %.critedge.i.thread

.critedge.thread.i:                               ; preds = %.lr.ph.i11
  %39 = icmp eq i32 %.029.i, 2147483647
  br i1 %39, label %_ZN2cv8tinyxml27XMLUtil11StringEqualEPKcS3_i.exit.thread, label %_ZNK2cv8tinyxml210XMLElement13FindAttributeEPKc.exit

.critedge.i.thread:                               ; preds = %.preheader.i, %.critedge.i
  %.016.lcssa.i19 = phi ptr [ %35, %.critedge.i ], [ %2, %.preheader.i ]
  %40 = load i8, ptr %.016.lcssa.i19, align 1, !tbaa !12
  %41 = icmp eq i8 %40, 0
  br i1 %41, label %_ZN2cv8tinyxml27XMLUtil11StringEqualEPKcS3_i.exit.thread, label %_ZNK2cv8tinyxml210XMLElement13FindAttributeEPKc.exit

_ZN2cv8tinyxml27XMLUtil11StringEqualEPKcS3_i.exit.thread: ; preds = %.critedge.thread.i, %.critedge.i, %.critedge.i.thread, %24, %23
  %42 = getelementptr inbounds nuw i8, ptr %.016.i, i64 32
  %43 = tail call noundef ptr @_ZN2cv8tinyxml27StrPair6GetStrEv(ptr noundef nonnull align 8 dereferenceable(24) %42)
  br label %_ZNK2cv8tinyxml210XMLElement13FindAttributeEPKc.exit

_ZNK2cv8tinyxml210XMLElement13FindAttributeEPKc.exit: ; preds = %_ZN2cv8tinyxml27XMLUtil11StringEqualEPKcS3_i.exit.i, %.critedge.i.thread, %.critedge.thread.i, %3, %_ZN2cv8tinyxml27XMLUtil11StringEqualEPKcS3_i.exit.thread
  %.0 = phi ptr [ %43, %_ZN2cv8tinyxml27XMLUtil11StringEqualEPKcS3_i.exit.thread ], [ null, %3 ], [ null, %.critedge.thread.i ], [ null, %.critedge.i.thread ], [ null, %_ZN2cv8tinyxml27XMLUtil11StringEqualEPKcS3_i.exit.i ]
  ret ptr %.0
}